; Function Attrs: mustprogress uwtable
define hidden noundef ptr @_ZN3opt9totalizer8at_leastEj(ptr noundef nonnull align 8 dereferenceable(56) %this, i32 noundef %k) local_unnamed_addr #3 align 2 {
entry:
  %cmp = icmp eq i32 %k, 0
  br i1 %cmp, label %if.then, label %if.end

if.then:                                          ; preds = %entry
  %0 = load ptr, ptr %this, align 8
  %m_true.i = getelementptr inbounds i8, ptr %0, i64 856
  br label %return

if.end:                                           ; preds = %entry
  %m_root = getelementptr inbounds i8, ptr %this, i64 24
  %1 = load ptr, ptr %m_root, align 8
  %m_nodes.i.i = getelementptr inbounds i8, ptr %1, i64 24
  %2 = load ptr, ptr %m_nodes.i.i, align 8
  %cmp.i.i.i = icmp eq ptr %2, null
  br i1 %cmp.i.i.i, label %_ZNK3opt9totalizer4node4sizeEv.exit, label %if.end.i.i.i

if.end.i.i.i:                                     ; preds = %if.end
  %arrayidx.i.i.i = getelementptr inbounds i8, ptr %2, i64 -4
  %3 = load i32, ptr %arrayidx.i.i.i, align 4
  br label %_ZNK3opt9totalizer4node4sizeEv.exit

_ZNK3opt9totalizer4node4sizeEv.exit:              ; preds = %if.end, %if.end.i.i.i
  %retval.0.i.i.i = phi i32 [ %3, %if.end.i.i.i ], [ 0, %if.end ]
  %cmp3 = icmp ult i32 %retval.0.i.i.i, %k
  br i1 %cmp3, label %if.then4, label %if.end7

if.then4:                                         ; preds = %_ZNK3opt9totalizer4node4sizeEv.exit
  %4 = load ptr, ptr %this, align 8
  %m_false.i = getelementptr inbounds i8, ptr %4, i64 864
  br label %return

if.end7:                                          ; preds = %_ZNK3opt9totalizer4node4sizeEv.exit
  tail call void @_ZN3opt9totalizer12ensure_boundEPNS0_4nodeEj(ptr noundef nonnull align 8 dereferenceable(56) %this, ptr noundef nonnull %1, i32 noundef %k)
  %5 = load ptr, ptr %m_root, align 8
  %sub = add i32 %k, -1
  %m_nodes.i = getelementptr inbounds i8, ptr %5, i64 24
  %6 = load ptr, ptr %m_nodes.i, align 8
  %idxprom.i.i = zext i32 %sub to i64
  %arrayidx.i.i = getelementptr inbounds ptr, ptr %6, i64 %idxprom.i.i
  br label %return

return:                                           ; preds = %if.end7, %if.then4, %if.then
  %retval.0.in = phi ptr [ %m_true.i, %if.then ], [ %m_false.i, %if.then4 ], [ %arrayidx.i.i, %if.end7 ]
  %retval.0 = load ptr, ptr %retval.0.in, align 8
  ret ptr %retval.0
}